; Function Attrs: mustprogress nounwind uwtable
define dso_local void @_ZN4llvm14MCWasmStreamer9emitLabelEPNS_8MCSymbolENS_5SMLocE(ptr noundef nonnull align 8 dereferenceable(425) %0, ptr noundef %1, ptr %2) unnamed_addr #0 align 2 {
  tail call void @_ZN4llvm16MCObjectStreamer9emitLabelEPNS_8MCSymbolENS_5SMLocE(ptr noundef nonnull align 8 dereferenceable(424) %0, ptr noundef %1, ptr %2) #12
  %4 = getelementptr inbounds nuw i8, ptr %0, i64 280
  %5 = load ptr, ptr %4, align 8
  %6 = getelementptr inbounds nuw i8, ptr %5, i64 8
  %7 = load ptr, ptr %6, align 8
  %8 = getelementptr inbounds nuw i8, ptr %7, i64 176
  %9 = load i32, ptr %8, align 8
  %10 = and i32 %9, 2
  %.not = icmp eq i32 %10, 0
  br i1 %.not, label %15, label %11

11:                                               ; preds = %3
  %12 = getelementptr inbounds nuw i8, ptr %1, i64 8
  %13 = load i64, ptr %12, align 8
  %14 = or i64 %13, 1099511627776
  store i64 %14, ptr %12, align 8
  br label %15

15:                                               ; preds = %11, %3
  ret void
}